; Function Attrs: mustprogress uwtable
define internal fastcc void @_ZN32pxrInternal_v0_24__pxrReserved__12_GLOBAL__N_113_ToDictionaryERKSt10shared_ptrINS_21HdContainerDataSourceEE(ptr dead_on_unwind noalias nonnull writable align 8 %0, ptr %.0.val, ptr %.8.val) unnamed_addr #0 personality ptr @__gxx_personality_v0 {
  %2 = alloca %"class.pxrInternal_v0_24__pxrReserved__::HdTypedContainerSchema", align 8
  %3 = alloca %"class.std::shared_ptr", align 8
  store ptr %.0.val, ptr %3, align 8
  %4 = getelementptr inbounds nuw i8, ptr %3, i64 8
  store ptr %.8.val, ptr %4, align 8
  %.not.i.i.i = icmp eq ptr %.8.val, null
  br i1 %.not.i.i.i, label %_ZNSt10shared_ptrIN32pxrInternal_v0_24__pxrReserved__21HdContainerDataSourceEEC2ERKS2_.exit, label %5

5:                                                ; preds = %1
  %6 = getelementptr inbounds nuw i8, ptr %.8.val, i64 8
  %7 = load i8, ptr @__libc_single_threaded, align 1
  %.not.i.i.i.i = icmp eq i8 %7, 0
  br i1 %.not.i.i.i.i, label %11, label %8

8:                                                ; preds = %5
  %9 = load i32, ptr %6, align 4
  %10 = add nsw i32 %9, 1
  store i32 %10, ptr %6, align 4
  br label %_ZNSt10shared_ptrIN32pxrInternal_v0_24__pxrReserved__21HdContainerDataSourceEEC2ERKS2_.exit

11:                                               ; preds = %5
  %12 = atomicrmw volatile add ptr %6, i32 1 acq_rel, align 4
  br label %_ZNSt10shared_ptrIN32pxrInternal_v0_24__pxrReserved__21HdContainerDataSourceEEC2ERKS2_.exit

_ZNSt10shared_ptrIN32pxrInternal_v0_24__pxrReserved__21HdContainerDataSourceEEC2ERKS2_.exit: ; preds = %1, %8, %11
  invoke void @_ZN32pxrInternal_v0_24__pxrReserved__22HdTypedContainerSchemaINS_19HdSampledDataSourceEEC2ESt10shared_ptrINS_21HdContainerDataSourceEE(ptr noundef nonnull align 8 dereferenceable(16) %2, ptr noundef nonnull %3)
          to label %13 unwind label %86

13:                                               ; preds = %_ZNSt10shared_ptrIN32pxrInternal_v0_24__pxrReserved__21HdContainerDataSourceEEC2ERKS2_.exit
  invoke fastcc void @_ZN32pxrInternal_v0_24__pxrReserved__12_GLOBAL__N_113_ToDictionaryENS_22HdTypedContainerSchemaINS_19HdSampledDataSourceEEE(ptr dead_on_unwind noalias writable align 8 %0, ptr noundef %2)
          to label %14 unwind label %88

14:                                               ; preds = %13
  %15 = getelementptr inbounds nuw i8, ptr %2, i64 8
  %16 = load ptr, ptr %15, align 8
  %.not.i.i.i.i.i.i = icmp eq ptr %16, null
  br i1 %.not.i.i.i.i.i.i, label %_ZN32pxrInternal_v0_24__pxrReserved__22HdTypedContainerSchemaINS_19HdSampledDataSourceEED2Ev.exit, label %17

17:                                               ; preds = %14
  %18 = getelementptr inbounds nuw i8, ptr %16, i64 8
  %19 = load atomic i64, ptr %18 acquire, align 8
  %20 = icmp eq i64 %19, 4294967297
  %21 = trunc i64 %19 to i32
  br i1 %20, label %22, label %27

22:                                               ; preds = %17
  store i32 0, ptr %18, align 8
  %23 = getelementptr inbounds nuw i8, ptr %16, i64 12
  store i32 0, ptr %23, align 4
  %24 = load ptr, ptr %16, align 8
  %25 = getelementptr inbounds nuw i8, ptr %24, i64 16
  %26 = load ptr, ptr %25, align 8
  call void %26(ptr noundef nonnull align 8 dereferenceable(16) %16) #28
  br label %_ZNSt16_Sp_counted_baseILN9__gnu_cxx12_Lock_policyE2EE24_M_release_last_use_coldEv.exit.sink.split.i.i.i.i.i.i.i

27:                                               ; preds = %17
  %28 = load i8, ptr @__libc_single_threaded, align 1
  %.not.i.i.i.i.i.i.i = icmp eq i8 %28, 0
  br i1 %.not.i.i.i.i.i.i.i, label %31, label %29

29:                                               ; preds = %27
  %30 = add nsw i32 %21, -1
  store i32 %30, ptr %18, align 4
  br label %33

31:                                               ; preds = %27
  %32 = atomicrmw volatile add ptr %18, i32 -1 acq_rel, align 4
  br label %33

33:                                               ; preds = %31, %29
  %.0.i.i.i.i.i.i.i = phi i32 [ %21, %29 ], [ %32, %31 ]
  %34 = icmp eq i32 %.0.i.i.i.i.i.i.i, 1
  br i1 %34, label %35, label %_ZN32pxrInternal_v0_24__pxrReserved__22HdTypedContainerSchemaINS_19HdSampledDataSourceEED2Ev.exit

35:                                               ; preds = %33
  %36 = load ptr, ptr %16, align 8
  %37 = getelementptr inbounds nuw i8, ptr %36, i64 16
  %38 = load ptr, ptr %37, align 8
  call void %38(ptr noundef nonnull align 8 dereferenceable(16) %16) #28
  %39 = getelementptr inbounds nuw i8, ptr %16, i64 12
  %40 = load i8, ptr @__libc_single_threaded, align 1
  %.not.i.i.i.i.i.i.i.i.i = icmp eq i8 %40, 0
  br i1 %.not.i.i.i.i.i.i.i.i.i, label %44, label %41

41:                                               ; preds = %35
  %42 = load i32, ptr %39, align 4
  %43 = add nsw i32 %42, -1
  store i32 %43, ptr %39, align 4
  br label %46

44:                                               ; preds = %35
  %45 = atomicrmw volatile add ptr %39, i32 -1 acq_rel, align 4
  br label %46

46:                                               ; preds = %44, %41
  %.0.i.i.i.i.i.i.i.i.i = phi i32 [ %42, %41 ], [ %45, %44 ]
  %47 = icmp eq i32 %.0.i.i.i.i.i.i.i.i.i, 1
  br i1 %47, label %_ZNSt16_Sp_counted_baseILN9__gnu_cxx12_Lock_policyE2EE24_M_release_last_use_coldEv.exit.sink.split.i.i.i.i.i.i.i, label %_ZN32pxrInternal_v0_24__pxrReserved__22HdTypedContainerSchemaINS_19HdSampledDataSourceEED2Ev.exit

_ZNSt16_Sp_counted_baseILN9__gnu_cxx12_Lock_policyE2EE24_M_release_last_use_coldEv.exit.sink.split.i.i.i.i.i.i.i: ; preds = %46, %22
  %48 = load ptr, ptr %16, align 8
  %49 = getelementptr inbounds nuw i8, ptr %48, i64 24
  %50 = load ptr, ptr %49, align 8
  call void %50(ptr noundef nonnull align 8 dereferenceable(16) %16) #28
  br label %_ZN32pxrInternal_v0_24__pxrReserved__22HdTypedContainerSchemaINS_19HdSampledDataSourceEED2Ev.exit

_ZN32pxrInternal_v0_24__pxrReserved__22HdTypedContainerSchemaINS_19HdSampledDataSourceEED2Ev.exit: ; preds = %14, %33, %46, %_ZNSt16_Sp_counted_baseILN9__gnu_cxx12_Lock_policyE2EE24_M_release_last_use_coldEv.exit.sink.split.i.i.i.i.i.i.i
  %51 = load ptr, ptr %4, align 8
  %.not.i.i.i4 = icmp eq ptr %51, null
  br i1 %.not.i.i.i4, label %_ZNSt10shared_ptrIN32pxrInternal_v0_24__pxrReserved__21HdContainerDataSourceEED2Ev.exit, label %52

52:                                               ; preds = %_ZN32pxrInternal_v0_24__pxrReserved__22HdTypedContainerSchemaINS_19HdSampledDataSourceEED2Ev.exit
  %53 = getelementptr inbounds nuw i8, ptr %51, i64 8
  %54 = load atomic i64, ptr %53 acquire, align 8
  %55 = icmp eq i64 %54, 4294967297
  %56 = trunc i64 %54 to i32
  br i1 %55, label %57, label %62

57:                                               ; preds = %52
  store i32 0, ptr %53, align 8
  %58 = getelementptr inbounds nuw i8, ptr %51, i64 12
  store i32 0, ptr %58, align 4
  %59 = load ptr, ptr %51, align 8
  %60 = getelementptr inbounds nuw i8, ptr %59, i64 16
  %61 = load ptr, ptr %60, align 8
  call void %61(ptr noundef nonnull align 8 dereferenceable(16) %51) #28
  br label %_ZNSt16_Sp_counted_baseILN9__gnu_cxx12_Lock_policyE2EE24_M_release_last_use_coldEv.exit.sink.split.i.i.i.i

62:                                               ; preds = %52
  %63 = load i8, ptr @__libc_single_threaded, align 1
  %.not.i.i.i.i5 = icmp eq i8 %63, 0
  br i1 %.not.i.i.i.i5, label %66, label %64

64:                                               ; preds = %62
  %65 = add nsw i32 %56, -1
  store i32 %65, ptr %53, align 4
  br label %68

66:                                               ; preds = %62
  %67 = atomicrmw volatile add ptr %53, i32 -1 acq_rel, align 4
  br label %68

68:                                               ; preds = %66, %64
  %.0.i.i.i.i = phi i32 [ %56, %64 ], [ %67, %66 ]
  %69 = icmp eq i32 %.0.i.i.i.i, 1
  br i1 %69, label %70, label %_ZNSt10shared_ptrIN32pxrInternal_v0_24__pxrReserved__21HdContainerDataSourceEED2Ev.exit

70:                                               ; preds = %68
  %71 = load ptr, ptr %51, align 8
  %72 = getelementptr inbounds nuw i8, ptr %71, i64 16
  %73 = load ptr, ptr %72, align 8
  call void %73(ptr noundef nonnull align 8 dereferenceable(16) %51) #28
  %74 = getelementptr inbounds nuw i8, ptr %51, i64 12
  %75 = load i8, ptr @__libc_single_threaded, align 1
  %.not.i.i.i.i.i.i6 = icmp eq i8 %75, 0
  br i1 %.not.i.i.i.i.i.i6, label %79, label %76

76:                                               ; preds = %70
  %77 = load i32, ptr %74, align 4
  %78 = add nsw i32 %77, -1
  store i32 %78, ptr %74, align 4
  br label %81

79:                                               ; preds = %70
  %80 = atomicrmw volatile add ptr %74, i32 -1 acq_rel, align 4
  br label %81

81:                                               ; preds = %79, %76
  %.0.i.i.i.i.i.i = phi i32 [ %77, %76 ], [ %80, %79 ]
  %82 = icmp eq i32 %.0.i.i.i.i.i.i, 1
  br i1 %82, label %_ZNSt16_Sp_counted_baseILN9__gnu_cxx12_Lock_policyE2EE24_M_release_last_use_coldEv.exit.sink.split.i.i.i.i, label %_ZNSt10shared_ptrIN32pxrInternal_v0_24__pxrReserved__21HdContainerDataSourceEED2Ev.exit

_ZNSt16_Sp_counted_baseILN9__gnu_cxx12_Lock_policyE2EE24_M_release_last_use_coldEv.exit.sink.split.i.i.i.i: ; preds = %81, %57
  %83 = load ptr, ptr %51, align 8
  %84 = getelementptr inbounds nuw i8, ptr %83, i64 24
  %85 = load ptr, ptr %84, align 8
  call void %85(ptr noundef nonnull align 8 dereferenceable(16) %51) #28
  br label %_ZNSt10shared_ptrIN32pxrInternal_v0_24__pxrReserved__21HdContainerDataSourceEED2Ev.exit

_ZNSt10shared_ptrIN32pxrInternal_v0_24__pxrReserved__21HdContainerDataSourceEED2Ev.exit: ; preds = %_ZN32pxrInternal_v0_24__pxrReserved__22HdTypedContainerSchemaINS_19HdSampledDataSourceEED2Ev.exit, %68, %81, %_ZNSt16_Sp_counted_baseILN9__gnu_cxx12_Lock_policyE2EE24_M_release_last_use_coldEv.exit.sink.split.i.i.i.i
  ret void

86:                                               ; preds = %_ZNSt10shared_ptrIN32pxrInternal_v0_24__pxrReserved__21HdContainerDataSourceEEC2ERKS2_.exit
  %87 = landingpad { ptr, i32 }
          cleanup
  br label %90

88:                                               ; preds = %13
  %89 = landingpad { ptr, i32 }
          cleanup
  call void @_ZN32pxrInternal_v0_24__pxrReserved__22HdTypedContainerSchemaINS_19HdSampledDataSourceEED2Ev(ptr noundef nonnull align 8 dereferenceable(16) %2) #28
  br label %90

90:                                               ; preds = %88, %86
  %.pn = phi { ptr, i32 } [ %89, %88 ], [ %87, %86 ]
  call void @_ZNSt10shared_ptrIN32pxrInternal_v0_24__pxrReserved__21HdContainerDataSourceEED2Ev(ptr noundef nonnull align 8 dereferenceable(16) %3) #28
  resume { ptr, i32 } %.pn
}